ARM GAS  C:\Users\1\AppData\Local\Temp\ccoBcQba.s 			page 1


   1              		.syntax unified
   2              		.cpu cortex-m0
   3              		.fpu softvfp
   4              		.eabi_attribute 20, 1
   5              		.eabi_attribute 21, 1
   6              		.eabi_attribute 23, 3
   7              		.eabi_attribute 24, 1
   8              		.eabi_attribute 25, 1
   9              		.eabi_attribute 26, 1
  10              		.eabi_attribute 30, 1
  11              		.eabi_attribute 34, 0
  12              		.eabi_attribute 18, 4
  13              		.thumb
  14              		.syntax unified
  15              		.file	"main.c"
  16              		.text
  17              	.Ltext0:
  18              		.cfi_sections	.debug_frame
  19              		.section	.text.readPorts1,"ax",%progbits
  20              		.align	2
  21              		.global	readPorts1
  22              		.code	16
  23              		.thumb_func
  24              		.type	readPorts1, %function
  25              	readPorts1:
  26              	.LFB35:
  27              		.file 1 "main.c"
   1:main.c        **** /* ========================================
   2:main.c        ****  *
   3:main.c        ****  * Copyright YOUR COMPANY, THE YEAR
   4:main.c        ****  * All Rights Reserved
   5:main.c        ****  * UNPUBLISHED, LICENSED SOFTWARE.
   6:main.c        ****  *
   7:main.c        ****  * CONFIDENTIAL AND PROPRIETARY INFORMATION
   8:main.c        ****  * WHICH IS THE PROPERTY OF your company.
   9:main.c        ****  *
  10:main.c        ****  * ========================================
  11:main.c        **** */
  12:main.c        **** #include "project.h"
  13:main.c        **** int readPorts1(){
  28              		.loc 1 13 0
  29              		.cfi_startproc
  30              		@ args = 0, pretend = 0, frame = 0
  31              		@ frame_needed = 0, uses_anonymous_args = 0
  32 0000 70B5     		push	{r4, r5, r6, lr}
  33              		.cfi_def_cfa_offset 16
  34              		.cfi_offset 4, -16
  35              		.cfi_offset 5, -12
  36              		.cfi_offset 6, -8
  37              		.cfi_offset 14, -4
  14:main.c        **** int a = Out1_1_Read();
  38              		.loc 1 14 0
  39 0002 FFF7FEFF 		bl	Out1_1_Read
  40              	.LVL0:
  41 0006 0500     		movs	r5, r0
  42              	.LVL1:
  15:main.c        **** int b = Out1_2_Read();
ARM GAS  C:\Users\1\AppData\Local\Temp\ccoBcQba.s 			page 2


  43              		.loc 1 15 0
  44 0008 FFF7FEFF 		bl	Out1_2_Read
  45              	.LVL2:
  46 000c 0400     		movs	r4, r0
  47              	.LVL3:
  16:main.c        **** int c = Out1_3_Read();
  48              		.loc 1 16 0
  49 000e FFF7FEFF 		bl	Out1_3_Read
  50              	.LVL4:
  17:main.c        **** if(a == 0)return 0;
  51              		.loc 1 17 0
  52 0012 002D     		cmp	r5, #0
  53 0014 05D0     		beq	.L3
  18:main.c        **** if(b == 0)return 1;
  54              		.loc 1 18 0
  55 0016 002C     		cmp	r4, #0
  56 0018 05D0     		beq	.L4
  19:main.c        **** if(c == 0)return 2;
  57              		.loc 1 19 0
  58 001a 0028     		cmp	r0, #0
  59 001c 05D1     		bne	.L5
  60 001e 0230     		adds	r0, r0, #2
  61              	.LVL5:
  62 0020 04E0     		b	.L2
  63              	.LVL6:
  64              	.L3:
  17:main.c        **** if(a == 0)return 0;
  65              		.loc 1 17 0
  66 0022 0020     		movs	r0, #0
  67              	.LVL7:
  68 0024 02E0     		b	.L2
  69              	.LVL8:
  70              	.L4:
  18:main.c        **** if(b == 0)return 1;
  71              		.loc 1 18 0
  72 0026 0120     		movs	r0, #1
  73              	.LVL9:
  74 0028 00E0     		b	.L2
  75              	.LVL10:
  76              	.L5:
  20:main.c        **** else return 3;
  77              		.loc 1 20 0
  78 002a 0320     		movs	r0, #3
  79              	.LVL11:
  80              	.L2:
  21:main.c        **** }
  81              		.loc 1 21 0
  82              		@ sp needed
  83              	.LVL12:
  84              	.LVL13:
  85 002c 70BD     		pop	{r4, r5, r6, pc}
  86              		.cfi_endproc
  87              	.LFE35:
  88              		.size	readPorts1, .-readPorts1
  89 002e C046     		.section	.text.readPorts2,"ax",%progbits
  90              		.align	2
  91              		.global	readPorts2
ARM GAS  C:\Users\1\AppData\Local\Temp\ccoBcQba.s 			page 3


  92              		.code	16
  93              		.thumb_func
  94              		.type	readPorts2, %function
  95              	readPorts2:
  96              	.LFB36:
  22:main.c        **** int readPorts2(){
  97              		.loc 1 22 0
  98              		.cfi_startproc
  99              		@ args = 0, pretend = 0, frame = 0
 100              		@ frame_needed = 0, uses_anonymous_args = 0
 101 0000 70B5     		push	{r4, r5, r6, lr}
 102              		.cfi_def_cfa_offset 16
 103              		.cfi_offset 4, -16
 104              		.cfi_offset 5, -12
 105              		.cfi_offset 6, -8
 106              		.cfi_offset 14, -4
  23:main.c        **** int a = Out2_1_Read();
 107              		.loc 1 23 0
 108 0002 FFF7FEFF 		bl	Out2_1_Read
 109              	.LVL14:
 110 0006 0500     		movs	r5, r0
 111              	.LVL15:
  24:main.c        **** int b = Out2_2_Read();
 112              		.loc 1 24 0
 113 0008 FFF7FEFF 		bl	Out2_2_Read
 114              	.LVL16:
 115 000c 0400     		movs	r4, r0
 116              	.LVL17:
  25:main.c        **** int c = Out2_3_Read();
 117              		.loc 1 25 0
 118 000e FFF7FEFF 		bl	Out2_3_Read
 119              	.LVL18:
  26:main.c        **** if(a == 0)return 0;
 120              		.loc 1 26 0
 121 0012 002D     		cmp	r5, #0
 122 0014 05D0     		beq	.L8
  27:main.c        **** if(b == 0)return 1;
 123              		.loc 1 27 0
 124 0016 002C     		cmp	r4, #0
 125 0018 05D0     		beq	.L9
  28:main.c        **** if(c == 0)return 2;
 126              		.loc 1 28 0
 127 001a 0028     		cmp	r0, #0
 128 001c 05D1     		bne	.L10
 129 001e 0230     		adds	r0, r0, #2
 130              	.LVL19:
 131 0020 04E0     		b	.L7
 132              	.LVL20:
 133              	.L8:
  26:main.c        **** if(a == 0)return 0;
 134              		.loc 1 26 0
 135 0022 0020     		movs	r0, #0
 136              	.LVL21:
 137 0024 02E0     		b	.L7
 138              	.LVL22:
 139              	.L9:
  27:main.c        **** if(b == 0)return 1;
ARM GAS  C:\Users\1\AppData\Local\Temp\ccoBcQba.s 			page 4


 140              		.loc 1 27 0
 141 0026 0120     		movs	r0, #1
 142              	.LVL23:
 143 0028 00E0     		b	.L7
 144              	.LVL24:
 145              	.L10:
  29:main.c        **** else return 3;
 146              		.loc 1 29 0
 147 002a 0320     		movs	r0, #3
 148              	.LVL25:
 149              	.L7:
  30:main.c        **** }
 150              		.loc 1 30 0
 151              		@ sp needed
 152              	.LVL26:
 153              	.LVL27:
 154 002c 70BD     		pop	{r4, r5, r6, pc}
 155              		.cfi_endproc
 156              	.LFE36:
 157              		.size	readPorts2, .-readPorts2
 158 002e C046     		.section	.text.main,"ax",%progbits
 159              		.align	2
 160              		.global	main
 161              		.code	16
 162              		.thumb_func
 163              		.type	main, %function
 164              	main:
 165              	.LFB37:
  31:main.c        **** 
  32:main.c        **** 
  33:main.c        **** int main(void)
  34:main.c        **** {
 166              		.loc 1 34 0
 167              		.cfi_startproc
 168              		@ args = 0, pretend = 0, frame = 0
 169              		@ frame_needed = 0, uses_anonymous_args = 0
 170 0000 70B5     		push	{r4, r5, r6, lr}
 171              		.cfi_def_cfa_offset 16
 172              		.cfi_offset 4, -16
 173              		.cfi_offset 5, -12
 174              		.cfi_offset 6, -8
 175              		.cfi_offset 14, -4
  35:main.c        ****     CyGlobalIntEnable; /* Enable global interrupts. */
 176              		.loc 1 35 0
 177              		.syntax divided
 178              	@ 35 "main.c" 1
 179 0002 62B6     		CPSIE   i
 180              	@ 0 "" 2
  36:main.c        **** 
  37:main.c        ****     /* Place your initialization/startup code here (e.g. MyInst_Start()) */
  38:main.c        ****     
  39:main.c        ****     
  40:main.c        ****     
  41:main.c        ****     Result_Write(0);
 181              		.loc 1 41 0
 182              		.thumb
 183              		.syntax unified
ARM GAS  C:\Users\1\AppData\Local\Temp\ccoBcQba.s 			page 5


 184 0004 0020     		movs	r0, #0
 185 0006 FFF7FEFF 		bl	Result_Write
 186              	.LVL28:
 187              	.L20:
 188              	.LBB2:
  42:main.c        ****     for(;;)
  43:main.c        ****     {
  44:main.c        ****         CyDelay(500);
 189              		.loc 1 44 0
 190 000a FA20     		movs	r0, #250
 191 000c 4000     		lsls	r0, r0, #1
 192 000e FFF7FEFF 		bl	CyDelay
 193              	.LVL29:
 194              	.LBB3:
  45:main.c        ****         int counter = 0;
  46:main.c        ****         for(int i = 0;i <= 1;i++){
 195              		.loc 1 46 0
 196 0012 0025     		movs	r5, #0
 197              	.LBE3:
  45:main.c        ****         int counter = 0;
 198              		.loc 1 45 0
 199 0014 0026     		movs	r6, #0
 200              	.LBB6:
 201              		.loc 1 46 0
 202 0016 15E0     		b	.L12
 203              	.LVL30:
 204              	.L14:
 205              	.LBB4:
  47:main.c        ****             for(int j = 0; j <=1; j++){
  48:main.c        ****                 In1_Write(i);
 206              		.loc 1 48 0
 207 0018 E8B2     		uxtb	r0, r5
 208 001a FFF7FEFF 		bl	In1_Write
 209              	.LVL31:
  49:main.c        ****                 In2_Write(j);
 210              		.loc 1 49 0
 211 001e E0B2     		uxtb	r0, r4
 212 0020 FFF7FEFF 		bl	In2_Write
 213              	.LVL32:
  50:main.c        ****                 CyDelay(100);
 214              		.loc 1 50 0
 215 0024 6420     		movs	r0, #100
 216 0026 FFF7FEFF 		bl	CyDelay
 217              	.LVL33:
  51:main.c        ****                 if(readPorts1() == i*2+j*1)counter++;;
 218              		.loc 1 51 0
 219 002a FFF7FEFF 		bl	readPorts1
 220              	.LVL34:
 221 002e 6B00     		lsls	r3, r5, #1
 222 0030 E318     		adds	r3, r4, r3
 223 0032 9842     		cmp	r0, r3
 224 0034 00D1     		bne	.L13
 225              		.loc 1 51 0 is_stmt 0 discriminator 1
 226 0036 0136     		adds	r6, r6, #1
 227              	.LVL35:
 228              	.L13:
  47:main.c        ****                 In1_Write(i);
ARM GAS  C:\Users\1\AppData\Local\Temp\ccoBcQba.s 			page 6


 229              		.loc 1 47 0 is_stmt 1 discriminator 2
 230 0038 0134     		adds	r4, r4, #1
 231              	.LVL36:
 232 003a 00E0     		b	.L15
 233              	.LVL37:
 234              	.L22:
 235              	.LBE4:
 236 003c 0024     		movs	r4, #0
 237              	.L15:
 238              	.LVL38:
 239              	.LBB5:
  47:main.c        ****                 In1_Write(i);
 240              		.loc 1 47 0 is_stmt 0 discriminator 1
 241 003e 012C     		cmp	r4, #1
 242 0040 EADD     		ble	.L14
 243              	.LBE5:
  46:main.c        ****             for(int j = 0; j <=1; j++){
 244              		.loc 1 46 0 is_stmt 1 discriminator 2
 245 0042 0135     		adds	r5, r5, #1
 246              	.LVL39:
 247              	.L12:
  46:main.c        ****             for(int j = 0; j <=1; j++){
 248              		.loc 1 46 0 is_stmt 0 discriminator 1
 249 0044 012D     		cmp	r5, #1
 250 0046 F9DD     		ble	.L22
 251 0048 0025     		movs	r5, #0
 252              	.LVL40:
 253 004a 16E0     		b	.L16
 254              	.LVL41:
 255              	.L18:
 256              	.LBE6:
 257              	.LBB7:
 258              	.LBB8:
  52:main.c        ****             }
  53:main.c        ****         }
  54:main.c        ****         for(int i = 0;i <= 1;i++){
  55:main.c        ****             for(int j = 0; j <=1; j++){
  56:main.c        ****                 In2_2_Write(i);
 259              		.loc 1 56 0 is_stmt 1
 260 004c E8B2     		uxtb	r0, r5
 261 004e FFF7FEFF 		bl	In2_2_Write
 262              	.LVL42:
  57:main.c        ****                 In1_2_Write(j);
 263              		.loc 1 57 0
 264 0052 E0B2     		uxtb	r0, r4
 265 0054 FFF7FEFF 		bl	In1_2_Write
 266              	.LVL43:
  58:main.c        ****                 CyDelay(500);
 267              		.loc 1 58 0
 268 0058 FA20     		movs	r0, #250
 269 005a 4000     		lsls	r0, r0, #1
 270 005c FFF7FEFF 		bl	CyDelay
 271              	.LVL44:
  59:main.c        ****                 if(readPorts2() == i*2+j*1)counter++;
 272              		.loc 1 59 0
 273 0060 FFF7FEFF 		bl	readPorts2
 274              	.LVL45:
ARM GAS  C:\Users\1\AppData\Local\Temp\ccoBcQba.s 			page 7


 275 0064 6B00     		lsls	r3, r5, #1
 276 0066 E318     		adds	r3, r4, r3
 277 0068 9842     		cmp	r0, r3
 278 006a 00D1     		bne	.L17
 279              		.loc 1 59 0 is_stmt 0 discriminator 1
 280 006c 0136     		adds	r6, r6, #1
 281              	.LVL46:
 282              	.L17:
  55:main.c        ****                 In2_2_Write(i);
 283              		.loc 1 55 0 is_stmt 1 discriminator 2
 284 006e 0134     		adds	r4, r4, #1
 285              	.LVL47:
 286 0070 00E0     		b	.L19
 287              	.LVL48:
 288              	.L23:
 289              	.LBE8:
 290 0072 0024     		movs	r4, #0
 291              	.L19:
 292              	.LVL49:
 293              	.LBB9:
  55:main.c        ****                 In2_2_Write(i);
 294              		.loc 1 55 0 is_stmt 0 discriminator 1
 295 0074 012C     		cmp	r4, #1
 296 0076 E9DD     		ble	.L18
 297              	.LBE9:
  54:main.c        ****             for(int j = 0; j <=1; j++){
 298              		.loc 1 54 0 is_stmt 1 discriminator 2
 299 0078 0135     		adds	r5, r5, #1
 300              	.LVL50:
 301              	.L16:
  54:main.c        ****             for(int j = 0; j <=1; j++){
 302              		.loc 1 54 0 is_stmt 0 discriminator 1
 303 007a 012D     		cmp	r5, #1
 304 007c F9DD     		ble	.L23
 305              	.LBE7:
  60:main.c        ****             }
  61:main.c        ****         }
  62:main.c        ****         if(counter==8)Result_Write(1);
 306              		.loc 1 62 0 is_stmt 1
 307 007e 082E     		cmp	r6, #8
 308 0080 C3D1     		bne	.L20
 309              		.loc 1 62 0 is_stmt 0 discriminator 1
 310 0082 0120     		movs	r0, #1
 311 0084 FFF7FEFF 		bl	Result_Write
 312              	.LVL51:
 313 0088 BFE7     		b	.L20
 314              	.LBE2:
 315              		.cfi_endproc
 316              	.LFE37:
 317              		.size	main, .-main
 318 008a C046     		.text
 319              	.Letext0:
 320              		.file 2 "Generated_Source\\PSoC4/Out1_1.h"
 321              		.file 3 "Generated_Source\\PSoC4/Out1_2.h"
 322              		.file 4 "Generated_Source\\PSoC4/Out1_3.h"
 323              		.file 5 "Generated_Source\\PSoC4/Out2_1.h"
 324              		.file 6 "Generated_Source\\PSoC4/Out2_2.h"
ARM GAS  C:\Users\1\AppData\Local\Temp\ccoBcQba.s 			page 8


 325              		.file 7 "Generated_Source\\PSoC4/Out2_3.h"
 326              		.file 8 "Generated_Source\\PSoC4/In1.h"
 327              		.file 9 "Generated_Source\\PSoC4/In2.h"
 328              		.file 10 "Generated_Source\\PSoC4/CyLib.h"
 329              		.file 11 "Generated_Source\\PSoC4/In2_2.h"
 330              		.file 12 "Generated_Source\\PSoC4/In1_2.h"
 331              		.file 13 "Generated_Source\\PSoC4/Result.h"